; Function Attrs: mustprogress nounwind uwtable
define void @_ZN19OpenColorIO_v2_5dev10ColorSpace15clearCategoriesEv(ptr noundef nonnull readonly align 8 captures(none) dereferenceable(8) %0) local_unnamed_addr #3 align 2 personality ptr @__gxx_personality_v0 {
  %2 = load ptr, ptr %0, align 8, !tbaa !52
  %3 = getelementptr inbounds nuw i8, ptr %2, i64 272
  %4 = load ptr, ptr %3, align 8, !tbaa !55
  %5 = getelementptr inbounds nuw i8, ptr %2, i64 280
  %6 = load ptr, ptr %5, align 8, !tbaa !56
  %.not.i.i.i = icmp eq ptr %6, %4
  br i1 %.not.i.i.i, label %_ZN19OpenColorIO_v2_5dev13TokensManager11clearTokensEv.exit, label %.lr.ph.i.i.i.i.i.i

.lr.ph.i.i.i.i.i.i:                               ; preds = %1, %_ZSt8_DestroyINSt7__cxx1112basic_stringIcSt11char_traitsIcESaIcEEEEvPT_.exit.i.i.i.i.i.i
  %.05.i.i.i.i.i.i = phi ptr [ %15, %_ZSt8_DestroyINSt7__cxx1112basic_stringIcSt11char_traitsIcESaIcEEEEvPT_.exit.i.i.i.i.i.i ], [ %4, %1 ]
  %7 = load ptr, ptr %.05.i.i.i.i.i.i, align 8, !tbaa !57
  %8 = getelementptr inbounds nuw i8, ptr %.05.i.i.i.i.i.i, i64 16
  %9 = icmp eq ptr %7, %8
  br i1 %9, label %_ZNKSt7__cxx1112basic_stringIcSt11char_traitsIcESaIcEE11_M_is_localEv.exit.thread.i.i.i.i.i.i.i.i.i, label %_ZNKSt7__cxx1112basic_stringIcSt11char_traitsIcESaIcEE11_M_is_localEv.exit.i.i.i.i.i.i.i.i.i

_ZNKSt7__cxx1112basic_stringIcSt11char_traitsIcESaIcEE11_M_is_localEv.exit.thread.i.i.i.i.i.i.i.i.i: ; preds = %.lr.ph.i.i.i.i.i.i
  %10 = getelementptr inbounds nuw i8, ptr %.05.i.i.i.i.i.i, i64 8
  %11 = load i64, ptr %10, align 8, !tbaa !28
  %12 = icmp ult i64 %11, 16
  tail call void @llvm.assume(i1 %12)
  br label %_ZSt8_DestroyINSt7__cxx1112basic_stringIcSt11char_traitsIcESaIcEEEEvPT_.exit.i.i.i.i.i.i

_ZNKSt7__cxx1112basic_stringIcSt11char_traitsIcESaIcEE11_M_is_localEv.exit.i.i.i.i.i.i.i.i.i: ; preds = %.lr.ph.i.i.i.i.i.i
  %13 = load i64, ptr %8, align 8, !tbaa !22
  %14 = add i64 %13, 1
  tail call void @_ZdlPvm(ptr noundef %7, i64 noundef %14) #24
  br label %_ZSt8_DestroyINSt7__cxx1112basic_stringIcSt11char_traitsIcESaIcEEEEvPT_.exit.i.i.i.i.i.i

_ZSt8_DestroyINSt7__cxx1112basic_stringIcSt11char_traitsIcESaIcEEEEvPT_.exit.i.i.i.i.i.i: ; preds = %_ZNKSt7__cxx1112basic_stringIcSt11char_traitsIcESaIcEE11_M_is_localEv.exit.i.i.i.i.i.i.i.i.i, %_ZNKSt7__cxx1112basic_stringIcSt11char_traitsIcESaIcEE11_M_is_localEv.exit.thread.i.i.i.i.i.i.i.i.i
  %15 = getelementptr inbounds nuw i8, ptr %.05.i.i.i.i.i.i, i64 32
  %.not.i.i.i.i.i.i = icmp eq ptr %15, %6
  br i1 %.not.i.i.i.i.i.i, label %_ZSt8_DestroyIPNSt7__cxx1112basic_stringIcSt11char_traitsIcESaIcEEES5_EvT_S7_RSaIT0_E.exit.i.i.i, label %.lr.ph.i.i.i.i.i.i, !llvm.loop !58

_ZSt8_DestroyIPNSt7__cxx1112basic_stringIcSt11char_traitsIcESaIcEEES5_EvT_S7_RSaIT0_E.exit.i.i.i: ; preds = %_ZSt8_DestroyINSt7__cxx1112basic_stringIcSt11char_traitsIcESaIcEEEEvPT_.exit.i.i.i.i.i.i
  store ptr %4, ptr %5, align 8, !tbaa !56
  br label %_ZN19OpenColorIO_v2_5dev13TokensManager11clearTokensEv.exit

_ZN19OpenColorIO_v2_5dev13TokensManager11clearTokensEv.exit: ; preds = %1, %_ZSt8_DestroyIPNSt7__cxx1112basic_stringIcSt11char_traitsIcESaIcEEES5_EvT_S7_RSaIT0_E.exit.i.i.i
  ret void
}